ARM GAS  C:\Users\Manu\AppData\Local\Temp\ccSa4zJ3.s 			page 1


   1              		.syntax unified
   2              		.cpu cortex-m3
   3              		.fpu softvfp
   4              		.eabi_attribute 20, 1
   5              		.eabi_attribute 21, 1
   6              		.eabi_attribute 23, 3
   7              		.eabi_attribute 24, 1
   8              		.eabi_attribute 25, 1
   9              		.eabi_attribute 26, 1
  10              		.eabi_attribute 30, 1
  11              		.eabi_attribute 34, 1
  12              		.eabi_attribute 18, 4
  13              		.thumb
  14              		.syntax unified
  15              		.file	"DataConversion.c"
  16              		.text
  17              	.Ltext0:
  18              		.cfi_sections	.debug_frame
  19              		.section	.text.RightAdjust,"ax",%progbits
  20              		.align	2
  21              		.global	RightAdjust
  22              		.thumb
  23              		.thumb_func
  24              		.type	RightAdjust, %function
  25              	RightAdjust:
  26              	.LFB63:
  27              		.file 1 "DataConversion.c"
   1:DataConversion.c **** /* =========================================================
   2:DataConversion.c ****  * 
   3:DataConversion.c ****  * The following functions are used for the data conversion
   4:DataConversion.c ****  *
   5:DataConversion.c ****  * =========================================================
   6:DataConversion.c **** */
   7:DataConversion.c **** #include "DataConversion.h"
   8:DataConversion.c **** 
   9:DataConversion.c **** 
  10:DataConversion.c **** /*  Right justify in a 16 bit integer:
  11:DataConversion.c ****     
  12:DataConversion.c ****     from:
  13:DataConversion.c ****     ‚ïî‚ïê‚ïê‚ïê‚ïê‚ïê‚ïê‚ïê‚ïê‚ïê‚ï¶‚ïê‚ïê‚ïê‚ïê‚ïê‚ïê‚ïê‚ïê‚ïê‚ïê‚ïê‚ï¶‚ïê‚ïê‚ïê‚ïê‚ïê‚ïê‚ïê‚ïê‚ï
  14:DataConversion.c ****     ‚ïë         ‚ïë  OUT_X_H  ‚ïë  OUT_X_L  ‚ïë
  15:DataConversion.c ****     ‚ï†‚ïê‚ïê‚ïê‚ïê‚ïê‚ïê‚ïê‚ïê‚ïê‚ï¨‚ïê‚ïê‚ïê‚ïê‚ïê‚ïê‚ïê‚ïê‚ïê‚ïê‚ïê‚ï¨‚ïê‚ïê‚ïê‚ïê‚ïê‚ïê‚ïê‚ïê‚ï
  16:DataConversion.c ****     ‚ïë Content ‚ïë xxxx xxxx ‚ïë xxxx 0000 ‚ïë
  17:DataConversion.c ****     ‚ïö‚ïê‚ïê‚ïê‚ïê‚ïê‚ïê‚ïê‚ïê‚ïê‚ï©‚ïê‚ïê‚ïê‚ïê‚ïê‚ïê‚ïê‚ïê‚ïê‚ïê‚ïê‚ï©‚ïê‚ïê‚ïê‚ïê‚ïê‚ïê‚ïê‚ïê‚ï
  18:DataConversion.c ****     
  19:DataConversion.c ****     to:
  20:DataConversion.c ****     ‚ïî‚ïê‚ïê‚ïê‚ïê‚ïê‚ïê‚ïê‚ïê‚ïê‚ï¶‚ïê‚ïê‚ïê‚ïê‚ïê‚ïê‚ïê‚ïê‚ïê‚ïê‚ïê‚ïê‚ïê‚ïê‚ïê‚ïê‚ïê‚ïê‚ïê‚ïê‚ï
  21:DataConversion.c ****     ‚ïë 16int_t ‚ïë 0000 xxxx xxxx xxxx ‚ïë
  22:DataConversion.c ****     ‚ïö‚ïê‚ïê‚ïê‚ïê‚ïê‚ïê‚ïê‚ïê‚ïê‚ï©‚ïê‚ïê‚ïê‚ïê‚ïê‚ïê‚ïê‚ïê‚ïê‚ïê‚ïê‚ïê‚ïê‚ïê‚ïê‚ïê‚ïê‚ïê‚ïê‚ïê‚ï
  23:DataConversion.c **** */
  24:DataConversion.c **** int16_t RightAdjust(uint8_t *arrayToAdjust)
  25:DataConversion.c **** {
  28              		.loc 1 25 0
  29              		.cfi_startproc
  30              		@ args = 0, pretend = 0, frame = 0
  31              		@ frame_needed = 0, uses_anonymous_args = 0
  32              		@ link register save eliminated.
ARM GAS  C:\Users\Manu\AppData\Local\Temp\ccSa4zJ3.s 			page 2


  33              	.LVL0:
  26:DataConversion.c ****     return (int16_t)((arrayToAdjust[0] | arrayToAdjust[1] << REGISTER_SIZE)) >> SHIFT_SIZE;
  34              		.loc 1 26 0
  35 0000 0378     		ldrb	r3, [r0]	@ zero_extendqisi2
  36 0002 4078     		ldrb	r0, [r0, #1]	@ zero_extendqisi2
  37              	.LVL1:
  38 0004 43EA0020 		orr	r0, r3, r0, lsl #8
  27:DataConversion.c **** }
  39              		.loc 1 27 0
  40 0008 40F30B10 		sbfx	r0, r0, #4, #12
  41 000c 7047     		bx	lr
  42              		.cfi_endproc
  43              	.LFE63:
  44              		.size	RightAdjust, .-RightAdjust
  45              		.global	__aeabi_fsub
  46              		.global	__aeabi_fmul
  47              		.global	__aeabi_fdiv
  48              		.global	__aeabi_fadd
  49 000e 00BF     		.section	.text.MinMaxScaler,"ax",%progbits
  50              		.align	2
  51              		.global	MinMaxScaler
  52              		.thumb
  53              		.thumb_func
  54              		.type	MinMaxScaler, %function
  55              	MinMaxScaler:
  56              	.LFB64:
  28:DataConversion.c **** 
  29:DataConversion.c **** 
  30:DataConversion.c **** /*  Scale the old range in the new range of 'mg' through a MinMaxScaler
  31:DataConversion.c **** 
  32:DataConversion.c ****     Actually the old range is from -2048 to 2047 [is a 12bit integer, and the '0' is considered in 
  33:DataConversion.c ****     to keep the '0' from the old scale in '0' to the new scale, -2048 to 2048 scale range was adopt
  34:DataConversion.c ****     accepting the fact of losing some values in the positive new range but this doesn't affect the 
  35:DataConversion.c **** 
  36:DataConversion.c ****     All variables are taken as float for doing the correct operations and then casted to int6_t for
  37:DataConversion.c **** */
  38:DataConversion.c **** float MinMaxScaler(float min, float max, float a, float b, float x)
  39:DataConversion.c **** {   
  57              		.loc 1 39 0
  58              		.cfi_startproc
  59              		@ args = 4, pretend = 0, frame = 0
  60              		@ frame_needed = 0, uses_anonymous_args = 0
  61              	.LVL2:
  62 0000 2DE9F041 		push	{r4, r5, r6, r7, r8, lr}
  63              		.cfi_def_cfa_offset 24
  64              		.cfi_offset 4, -24
  65              		.cfi_offset 5, -20
  66              		.cfi_offset 6, -16
  67              		.cfi_offset 7, -12
  68              		.cfi_offset 8, -8
  69              		.cfi_offset 14, -4
  70 0004 0546     		mov	r5, r0
  71 0006 0F46     		mov	r7, r1
  72 0008 1446     		mov	r4, r2
  73 000a 9846     		mov	r8, r3
  40:DataConversion.c ****     return (float)((((x - min) * (b - a))/(max - min)) + a);
  74              		.loc 1 40 0
ARM GAS  C:\Users\Manu\AppData\Local\Temp\ccSa4zJ3.s 			page 3


  75 000c 0146     		mov	r1, r0
  76              	.LVL3:
  77 000e 0698     		ldr	r0, [sp, #24]	@ float
  78              	.LVL4:
  79 0010 FFF7FEFF 		bl	__aeabi_fsub
  80              	.LVL5:
  81 0014 0646     		mov	r6, r0
  82 0016 2146     		mov	r1, r4
  83 0018 4046     		mov	r0, r8
  84 001a FFF7FEFF 		bl	__aeabi_fsub
  85              	.LVL6:
  86 001e 0146     		mov	r1, r0
  87 0020 3046     		mov	r0, r6
  88 0022 FFF7FEFF 		bl	__aeabi_fmul
  89              	.LVL7:
  90 0026 0646     		mov	r6, r0
  91 0028 2946     		mov	r1, r5
  92 002a 3846     		mov	r0, r7
  93 002c FFF7FEFF 		bl	__aeabi_fsub
  94              	.LVL8:
  95 0030 0146     		mov	r1, r0
  96 0032 3046     		mov	r0, r6
  97 0034 FFF7FEFF 		bl	__aeabi_fdiv
  98              	.LVL9:
  99 0038 0146     		mov	r1, r0
 100 003a 2046     		mov	r0, r4
 101 003c FFF7FEFF 		bl	__aeabi_fadd
 102              	.LVL10:
  41:DataConversion.c **** }
 103              		.loc 1 41 0
 104 0040 BDE8F081 		pop	{r4, r5, r6, r7, r8, pc}
 105              		.cfi_endproc
 106              	.LFE64:
 107              		.size	MinMaxScaler, .-MinMaxScaler
 108              		.text
 109              	.Letext0:
 110              		.file 2 "c:\\program files (x86)\\cypress\\psoc creator\\4.3\\psoc creator\\import\\gnu\\arm\\5.4.
 111              		.file 3 "c:\\program files (x86)\\cypress\\psoc creator\\4.3\\psoc creator\\import\\gnu\\arm\\5.4.
 112              		.file 4 "Generated_Source\\PSoC5/core_cm3.h"