ARM GAS  C:\Users\Manu\AppData\Local\Temp\ccmO75fw.s 			page 1


   1              		.syntax unified
   2              		.cpu cortex-m3
   3              		.fpu softvfp
   4              		.eabi_attribute 20, 1
   5              		.eabi_attribute 21, 1
   6              		.eabi_attribute 23, 3
   7              		.eabi_attribute 24, 1
   8              		.eabi_attribute 25, 1
   9              		.eabi_attribute 26, 1
  10              		.eabi_attribute 30, 1
  11              		.eabi_attribute 34, 1
  12              		.eabi_attribute 18, 4
  13              		.thumb
  14              		.syntax unified
  15              		.file	"InterruptRoutines.c"
  16              		.text
  17              	.Ltext0:
  18              		.cfi_sections	.debug_frame
  19              		.global	__aeabi_i2f
  20              		.global	__aeabi_fmul
  21              		.global	__aeabi_f2iz
  22              		.section	.text.Custom_ISR_IMU,"ax",%progbits
  23              		.align	2
  24              		.global	Custom_ISR_IMU
  25              		.thumb
  26              		.thumb_func
  27              		.type	Custom_ISR_IMU, %function
  28              	Custom_ISR_IMU:
  29              	.LFB63:
  30              		.file 1 "InterruptRoutines.c"
   1:InterruptRoutines.c **** /* ===========================================================
   2:InterruptRoutines.c ****  *
   3:InterruptRoutines.c ****  * In this file there is the main functioning of the
   4:InterruptRoutines.c ****  * ISR for the reading of the 3 values of acceleration @100Hz 
   5:InterruptRoutines.c ****  *
   6:InterruptRoutines.c ****  * ==========================================================
   7:InterruptRoutines.c **** */
   8:InterruptRoutines.c **** #include "InterruptRoutines.h"
   9:InterruptRoutines.c **** #include "DataConversion.h"
  10:InterruptRoutines.c **** 
  11:InterruptRoutines.c **** ErrorCode error; // Store the occurence of an error during the I2C reading
  12:InterruptRoutines.c **** 
  13:InterruptRoutines.c **** uint8_t status_register; // Store the value of the status register
  14:InterruptRoutines.c **** 
  15:InterruptRoutines.c **** uint8_t tmpBuffer[BYTE_TO_SEND]; // Temporary buffer to store the read values from the 6 registers
  16:InterruptRoutines.c **** int16_t tmpAxis; // Temporary singed integer to store the actual axis value
  17:InterruptRoutines.c **** 
  18:InterruptRoutines.c **** uint8_t register_block; // Variable used to cycle over the 3 axis registers[low + high at the same 
  19:InterruptRoutines.c **** 
  20:InterruptRoutines.c **** float tmpFloat; // Temporary float value to keep the decimals of the read acceleration
  21:InterruptRoutines.c **** 
  22:InterruptRoutines.c **** int32_t tmpInt; // 32 bit signed integer for keeping desired decimal precision during conversion
  23:InterruptRoutines.c **** 
  24:InterruptRoutines.c **** CY_ISR(Custom_ISR_IMU)
  25:InterruptRoutines.c **** {
  31              		.loc 1 25 0
  32              		.cfi_startproc
ARM GAS  C:\Users\Manu\AppData\Local\Temp\ccmO75fw.s 			page 2


  33              		@ args = 0, pretend = 0, frame = 0
  34              		@ frame_needed = 0, uses_anonymous_args = 0
  35 0000 F0B5     		push	{r4, r5, r6, r7, lr}
  36              		.cfi_def_cfa_offset 20
  37              		.cfi_offset 4, -20
  38              		.cfi_offset 5, -16
  39              		.cfi_offset 6, -12
  40              		.cfi_offset 7, -8
  41              		.cfi_offset 14, -4
  42 0002 83B0     		sub	sp, sp, #12
  43              		.cfi_def_cfa_offset 32
  26:InterruptRoutines.c ****     // Read Timer status register to bring interrupt line low
  27:InterruptRoutines.c ****     Timer_ISR_ReadStatusRegister();
  44              		.loc 1 27 0
  45 0004 FFF7FEFF 		bl	Timer_ISR_ReadStatusRegister
  46              	.LVL0:
  28:InterruptRoutines.c ****     
  29:InterruptRoutines.c ****     // Read the status register in order to verify the readiness of the XYZ data
  30:InterruptRoutines.c ****     error = I2C_Peripheral_ReadRegister(LIS3DH_DEVICE_ADDRESS,
  47              		.loc 1 30 0
  48 0008 314A     		ldr	r2, .L6
  49 000a 2721     		movs	r1, #39
  50 000c 1820     		movs	r0, #24
  51 000e FFF7FEFF 		bl	I2C_Peripheral_ReadRegister
  52              	.LVL1:
  53 0012 304B     		ldr	r3, .L6+4
  54 0014 1870     		strb	r0, [r3]
  31:InterruptRoutines.c ****                                         LIS3DH_STATUS_REG,
  32:InterruptRoutines.c ****                                         &status_register);
  33:InterruptRoutines.c ****     
  34:InterruptRoutines.c ****     if (error == NO_ERROR)
  55              		.loc 1 34 0
  56 0016 0028     		cmp	r0, #0
  57 0018 58D1     		bne	.L1
  35:InterruptRoutines.c ****     {
  36:InterruptRoutines.c ****         /*  Bitwise mask to check only if the 'ZYXDA' bit in the status register is '1', so if ther
  37:InterruptRoutines.c ****             |X X X X X X X X| & |0 0 0 0 1 0 0 0|  --> |0 0 0 0 X 0 0 0|   check if 'X' is '1' afte
  38:InterruptRoutines.c ****         */
  39:InterruptRoutines.c ****         if((status_register & STATUS_REG_MASK) == STATUS_REG_MASK)
  58              		.loc 1 39 0
  59 001a 2D4B     		ldr	r3, .L6
  60 001c 1B78     		ldrb	r3, [r3]	@ zero_extendqisi2
  61 001e 13F0080F 		tst	r3, #8
  62 0022 53D0     		beq	.L1
  40:InterruptRoutines.c ****         {  
  41:InterruptRoutines.c ****             // Read in sequence the 6 registers containing the 3-axis values with a multiRead funct
  42:InterruptRoutines.c ****             error = I2C_Peripheral_ReadRegisterMulti(LIS3DH_DEVICE_ADDRESS,
  63              		.loc 1 42 0
  64 0024 2C4B     		ldr	r3, .L6+8
  65 0026 0622     		movs	r2, #6
  66 0028 2821     		movs	r1, #40
  67 002a 1820     		movs	r0, #24
  68 002c FFF7FEFF 		bl	I2C_Peripheral_ReadRegisterMulti
  69              	.LVL2:
  70 0030 284B     		ldr	r3, .L6+4
  71 0032 1870     		strb	r0, [r3]
  43:InterruptRoutines.c ****                                                      LIS3DH_OUT_X_L,
ARM GAS  C:\Users\Manu\AppData\Local\Temp\ccmO75fw.s 			page 3


  44:InterruptRoutines.c ****                                                      REGISTER_COUNT,
  45:InterruptRoutines.c ****                                                      tmpBuffer);
  46:InterruptRoutines.c ****             if (error == NO_ERROR)
  72              		.loc 1 46 0
  73 0034 0028     		cmp	r0, #0
  74 0036 49D1     		bne	.L1
  47:InterruptRoutines.c ****             {
  48:InterruptRoutines.c ****                 // Loop through the X, Y, Z register block stored in the tmpBuffer
  49:InterruptRoutines.c ****                 for(register_block = 0; register_block < 3; register_block++)
  75              		.loc 1 49 0
  76 0038 0022     		movs	r2, #0
  77 003a 284B     		ldr	r3, .L6+12
  78 003c 1A70     		strb	r2, [r3]
  79 003e 3EE0     		b	.L3
  80              	.L4:
  50:InterruptRoutines.c ****                 {
  51:InterruptRoutines.c ****                     // Adjust and scale the data read previously in the registers, return a tempora
  52:InterruptRoutines.c ****                     tmpAxis = RightAdjust(&tmpBuffer[register_block * 2]); // Pass the appropriate 
  81              		.loc 1 52 0 discriminator 3
  82 0040 2548     		ldr	r0, .L6+8
  83 0042 00EB4300 		add	r0, r0, r3, lsl #1
  84 0046 FFF7FEFF 		bl	RightAdjust
  85              	.LVL3:
  86 004a 254B     		ldr	r3, .L6+16
  87 004c 1880     		strh	r0, [r3]	@ movhi
  53:InterruptRoutines.c ****                     
  54:InterruptRoutines.c ****                     // Casting tmpAxis from int6_t to a float in this scale of values [+-2048] does
  55:InterruptRoutines.c ****                     tmpFloat = MinMaxScaler(MIN_OLD_SCALE, MAX_OLD_SCALE, MIN_NEW_SCALE * GRAVITY, 
  88              		.loc 1 55 0 discriminator 3
  89 004e FFF7FEFF 		bl	__aeabi_i2f
  90              	.LVL4:
  91 0052 0090     		str	r0, [sp]	@ float
  92 0054 234B     		ldr	r3, .L6+20
  93 0056 244A     		ldr	r2, .L6+24
  94 0058 4FF08A41 		mov	r1, #1157627904
  95 005c 4FF04540 		mov	r0, #-989855744
  96 0060 FFF7FEFF 		bl	MinMaxScaler
  97              	.LVL5:
  98 0064 214B     		ldr	r3, .L6+28
  99 0066 1860     		str	r0, [r3]	@ float
  56:InterruptRoutines.c ****                     tmpInt = (int32_t)(tmpFloat * DECIMAL_PRECISION); // Multiply for keeping desir
 100              		.loc 1 56 0 discriminator 3
 101 0068 2149     		ldr	r1, .L6+32
 102 006a FFF7FEFF 		bl	__aeabi_fmul
 103              	.LVL6:
 104 006e FFF7FEFF 		bl	__aeabi_f2iz
 105              	.LVL7:
 106 0072 204F     		ldr	r7, .L6+36
 107 0074 3860     		str	r0, [r7]
  57:InterruptRoutines.c ****                     
  58:InterruptRoutines.c ****                     //Insert the 4 bytes of tmpInt in the appropriate position in the buffer[from 1
  59:InterruptRoutines.c ****                     dataBuffer[register_block*4 + 1] = ByteSelection(tmpInt, 0);
 108              		.loc 1 59 0 discriminator 3
 109 0076 194C     		ldr	r4, .L6+12
 110 0078 2578     		ldrb	r5, [r4]	@ zero_extendqisi2
 111 007a AD00     		lsls	r5, r5, #2
 112 007c 0135     		adds	r5, r5, #1
ARM GAS  C:\Users\Manu\AppData\Local\Temp\ccmO75fw.s 			page 4


 113 007e 0021     		movs	r1, #0
 114 0080 FFF7FEFF 		bl	ByteSelection
 115              	.LVL8:
 116 0084 1C4E     		ldr	r6, .L6+40
 117 0086 7055     		strb	r0, [r6, r5]
  60:InterruptRoutines.c ****                     dataBuffer[register_block*4 + 2] = ByteSelection(tmpInt, 1);
 118              		.loc 1 60 0 discriminator 3
 119 0088 2578     		ldrb	r5, [r4]	@ zero_extendqisi2
 120 008a AD00     		lsls	r5, r5, #2
 121 008c 0235     		adds	r5, r5, #2
 122 008e 0121     		movs	r1, #1
 123 0090 3868     		ldr	r0, [r7]
 124 0092 FFF7FEFF 		bl	ByteSelection
 125              	.LVL9:
 126 0096 7055     		strb	r0, [r6, r5]
  61:InterruptRoutines.c ****                     dataBuffer[register_block*4 + 3] = ByteSelection(tmpInt, 2);
 127              		.loc 1 61 0 discriminator 3
 128 0098 2578     		ldrb	r5, [r4]	@ zero_extendqisi2
 129 009a AD00     		lsls	r5, r5, #2
 130 009c 0335     		adds	r5, r5, #3
 131 009e 0221     		movs	r1, #2
 132 00a0 3868     		ldr	r0, [r7]
 133 00a2 FFF7FEFF 		bl	ByteSelection
 134              	.LVL10:
 135 00a6 7055     		strb	r0, [r6, r5]
  62:InterruptRoutines.c ****                     dataBuffer[register_block*4 + 4] = ByteSelection(tmpInt, 3);
 136              		.loc 1 62 0 discriminator 3
 137 00a8 2578     		ldrb	r5, [r4]	@ zero_extendqisi2
 138 00aa 0135     		adds	r5, r5, #1
 139 00ac 0321     		movs	r1, #3
 140 00ae 3868     		ldr	r0, [r7]
 141 00b0 FFF7FEFF 		bl	ByteSelection
 142              	.LVL11:
 143 00b4 06F82500 		strb	r0, [r6, r5, lsl #2]
  49:InterruptRoutines.c ****                 {
 144              		.loc 1 49 0 discriminator 3
 145 00b8 2378     		ldrb	r3, [r4]	@ zero_extendqisi2
 146 00ba 0133     		adds	r3, r3, #1
 147 00bc 2370     		strb	r3, [r4]
 148              	.L3:
  49:InterruptRoutines.c ****                 {
 149              		.loc 1 49 0 is_stmt 0 discriminator 1
 150 00be 074B     		ldr	r3, .L6+12
 151 00c0 1B78     		ldrb	r3, [r3]	@ zero_extendqisi2
 152 00c2 022B     		cmp	r3, #2
 153 00c4 BCD9     		bls	.L4
  63:InterruptRoutines.c ****                 }
  64:InterruptRoutines.c ****                 PacketReadyFlag = 1;  // Packet is complete and ready to be sent
 154              		.loc 1 64 0 is_stmt 1
 155 00c6 0122     		movs	r2, #1
 156 00c8 0C4B     		ldr	r3, .L6+44
 157 00ca 1A70     		strb	r2, [r3]
 158              	.L1:
  65:InterruptRoutines.c ****             }
  66:InterruptRoutines.c ****         }
  67:InterruptRoutines.c ****     }
  68:InterruptRoutines.c **** }
ARM GAS  C:\Users\Manu\AppData\Local\Temp\ccmO75fw.s 			page 5


 159              		.loc 1 68 0
 160 00cc 03B0     		add	sp, sp, #12
 161              		.cfi_def_cfa_offset 20
 162              		@ sp needed
 163 00ce F0BD     		pop	{r4, r5, r6, r7, pc}
 164              	.L7:
 165              		.align	2
 166              	.L6:
 167 00d0 00000000 		.word	status_register
 168 00d4 00000000 		.word	error
 169 00d8 00000000 		.word	tmpBuffer
 170 00dc 00000000 		.word	register_block
 171 00e0 00000000 		.word	tmpAxis
 172 00e4 C3F51C42 		.word	1109194179
 173 00e8 C3F51CC2 		.word	-1038289469
 174 00ec 00000000 		.word	tmpFloat
 175 00f0 00401C46 		.word	1176256512
 176 00f4 00000000 		.word	tmpInt
 177 00f8 00000000 		.word	dataBuffer
 178 00fc 00000000 		.word	PacketReadyFlag
 179              		.cfi_endproc
 180              	.LFE63:
 181              		.size	Custom_ISR_IMU, .-Custom_ISR_IMU
 182              		.comm	tmpInt,4,4
 183              		.comm	tmpFloat,4,4
 184              		.comm	register_block,1,1
 185              		.comm	tmpAxis,2,2
 186              		.comm	tmpBuffer,12,4
 187              		.comm	status_register,1,1
 188              		.comm	error,1,1
 189              		.comm	dataBuffer,14,4
 190              		.comm	PacketReadyFlag,1,1
 191              		.text
 192              	.Letext0:
 193              		.file 2 "c:\\program files (x86)\\cypress\\psoc creator\\4.3\\psoc creator\\import\\gnu\\arm\\5.4.
 194              		.file 3 "c:\\program files (x86)\\cypress\\psoc creator\\4.3\\psoc creator\\import\\gnu\\arm\\5.4.
 195              		.file 4 "Generated_Source\\PSoC5/cytypes.h"
 196              		.file 5 "ErrorCodes.h"
 197              		.file 6 "Generated_Source\\PSoC5/core_cm3.h"
 198              		.file 7 "InterruptRoutines.h"
 199              		.file 8 "Generated_Source\\PSoC5/Timer_ISR.h"
 200              		.file 9 "I2C_Interface.h"
 201              		.file 10 "DataConversion.h"