ARM GAS  C:\Users\Manu\AppData\Local\Temp\ccFMboN3.s 			page 1


   1              		.syntax unified
   2              		.cpu cortex-m3
   3              		.fpu softvfp
   4              		.eabi_attribute 20, 1
   5              		.eabi_attribute 21, 1
   6              		.eabi_attribute 23, 3
   7              		.eabi_attribute 24, 1
   8              		.eabi_attribute 25, 1
   9              		.eabi_attribute 26, 1
  10              		.eabi_attribute 30, 1
  11              		.eabi_attribute 34, 1
  12              		.eabi_attribute 18, 4
  13              		.thumb
  14              		.syntax unified
  15              		.file	"DataConversion.c"
  16              		.text
  17              	.Ltext0:
  18              		.cfi_sections	.debug_frame
  19              		.section	.text.RightAdjust,"ax",%progbits
  20              		.align	2
  21              		.global	RightAdjust
  22              		.thumb
  23              		.thumb_func
  24              		.type	RightAdjust, %function
  25              	RightAdjust:
  26              	.LFB63:
  27              		.file 1 "DataConversion.c"
   1:DataConversion.c **** /* =========================================================
   2:DataConversion.c ****  * 
   3:DataConversion.c ****  * The following functions are used for the data conversion
   4:DataConversion.c ****  * and bit manipulation.
   5:DataConversion.c ****  *
   6:DataConversion.c ****  * =========================================================
   7:DataConversion.c **** */
   8:DataConversion.c **** #include "DataConversion.h"
   9:DataConversion.c **** 
  10:DataConversion.c **** 
  11:DataConversion.c **** /*  Right justify in a 16 bit integer:
  12:DataConversion.c ****     
  13:DataConversion.c ****     from:
  14:DataConversion.c ****     ‚ïî‚ïê‚ïê‚ïê‚ïê‚ïê‚ïê‚ïê‚ïê‚ïê‚ï¶‚ïê‚ïê‚ïê‚ïê‚ïê‚ïê‚ïê‚ïê‚ïê‚ïê‚ïê‚ï¶‚ïê‚ïê‚ïê‚ïê‚ïê‚ïê‚ïê‚ïê‚ï
  15:DataConversion.c ****     ‚ïë         ‚ïë  OUT_X_H  ‚ïë  OUT_X_L  ‚ïë
  16:DataConversion.c ****     ‚ï†‚ïê‚ïê‚ïê‚ïê‚ïê‚ïê‚ïê‚ïê‚ïê‚ï¨‚ïê‚ïê‚ïê‚ïê‚ïê‚ïê‚ïê‚ïê‚ïê‚ïê‚ïê‚ï¨‚ïê‚ïê‚ïê‚ïê‚ïê‚ïê‚ïê‚ïê‚ï
  17:DataConversion.c ****     ‚ïë Content ‚ïë xxxx xxxx ‚ïë xx00 0000 ‚ïë
  18:DataConversion.c ****     ‚ïö‚ïê‚ïê‚ïê‚ïê‚ïê‚ïê‚ïê‚ïê‚ïê‚ï©‚ïê‚ïê‚ïê‚ïê‚ïê‚ïê‚ïê‚ïê‚ïê‚ïê‚ïê‚ï©‚ïê‚ïê‚ïê‚ïê‚ïê‚ïê‚ïê‚ïê‚ï
  19:DataConversion.c ****     
  20:DataConversion.c ****     to:
  21:DataConversion.c ****     ‚ïî‚ïê‚ïê‚ïê‚ïê‚ïê‚ïê‚ïê‚ïê‚ïê‚ï¶‚ïê‚ïê‚ïê‚ïê‚ïê‚ïê‚ïê‚ïê‚ïê‚ïê‚ïê‚ïê‚ïê‚ïê‚ïê‚ïê‚ïê‚ïê‚ïê‚ïê‚ï
  22:DataConversion.c ****     ‚ïë 16int_t ‚ïë 0000 00xx xxxx xxxx ‚ïë
  23:DataConversion.c ****     ‚ïö‚ïê‚ïê‚ïê‚ïê‚ïê‚ïê‚ïê‚ïê‚ïê‚ï©‚ïê‚ïê‚ïê‚ïê‚ïê‚ïê‚ïê‚ïê‚ïê‚ïê‚ïê‚ïê‚ïê‚ïê‚ïê‚ïê‚ïê‚ïê‚ïê‚ïê‚ï
  24:DataConversion.c **** */
  25:DataConversion.c **** int16_t RightAdjust(uint8_t *arrayToAdjust)
  26:DataConversion.c **** {
  28              		.loc 1 26 0
  29              		.cfi_startproc
  30              		@ args = 0, pretend = 0, frame = 0
  31              		@ frame_needed = 0, uses_anonymous_args = 0
ARM GAS  C:\Users\Manu\AppData\Local\Temp\ccFMboN3.s 			page 2


  32              		@ link register save eliminated.
  33              	.LVL0:
  27:DataConversion.c ****     return (int16_t)((arrayToAdjust[0] | arrayToAdjust[1]<<REGISTER_SIZE))>>SHIFT_SIZE;
  34              		.loc 1 27 0
  35 0000 0378     		ldrb	r3, [r0]	@ zero_extendqisi2
  36 0002 4078     		ldrb	r0, [r0, #1]	@ zero_extendqisi2
  37              	.LVL1:
  38 0004 43EA0020 		orr	r0, r3, r0, lsl #8
  28:DataConversion.c **** }
  39              		.loc 1 28 0
  40 0008 40F38910 		sbfx	r0, r0, #6, #10
  41 000c 7047     		bx	lr
  42              		.cfi_endproc
  43              	.LFE63:
  44              		.size	RightAdjust, .-RightAdjust
  45              		.global	__aeabi_fsub
  46              		.global	__aeabi_fmul
  47              		.global	__aeabi_fdiv
  48              		.global	__aeabi_fadd
  49              		.global	__aeabi_f2iz
  50 000e 00BF     		.section	.text.MinMaxScaler,"ax",%progbits
  51              		.align	2
  52              		.global	MinMaxScaler
  53              		.thumb
  54              		.thumb_func
  55              		.type	MinMaxScaler, %function
  56              	MinMaxScaler:
  57              	.LFB64:
  29:DataConversion.c **** 
  30:DataConversion.c **** 
  31:DataConversion.c **** /*  Scale the old range in the new range of 'mg' through a MinMaxScaler
  32:DataConversion.c **** 
  33:DataConversion.c ****     Actually the old range is from -512 to 511 [is a 10bit integer, and the '0' is considered in th
  34:DataConversion.c ****     to keep the '0' from the old scale in '0' to the new scale, -512 to 512 scale range was adopted
  35:DataConversion.c ****     accepting the fact of losing some values in the positive new range (1996 instead of 2000) but t
  36:DataConversion.c ****     doesn't affect the measurement.
  37:DataConversion.c **** 
  38:DataConversion.c ****     All variables are taken as float for doing the correct operations and then casted to int6_t for
  39:DataConversion.c **** */
  40:DataConversion.c **** int16_t MinMaxScaler(float min, float max, float a, float b, float x)
  41:DataConversion.c **** {   
  58              		.loc 1 41 0
  59              		.cfi_startproc
  60              		@ args = 4, pretend = 0, frame = 0
  61              		@ frame_needed = 0, uses_anonymous_args = 0
  62              	.LVL2:
  63 0000 2DE9F041 		push	{r4, r5, r6, r7, r8, lr}
  64              		.cfi_def_cfa_offset 24
  65              		.cfi_offset 4, -24
  66              		.cfi_offset 5, -20
  67              		.cfi_offset 6, -16
  68              		.cfi_offset 7, -12
  69              		.cfi_offset 8, -8
  70              		.cfi_offset 14, -4
  71 0004 0546     		mov	r5, r0
  72 0006 0F46     		mov	r7, r1
  73 0008 1446     		mov	r4, r2
ARM GAS  C:\Users\Manu\AppData\Local\Temp\ccFMboN3.s 			page 3


  74 000a 9846     		mov	r8, r3
  42:DataConversion.c ****     return (int16_t)((((x - min) * (b - a))/(max - min)) + a);
  75              		.loc 1 42 0
  76 000c 0146     		mov	r1, r0
  77              	.LVL3:
  78 000e 0698     		ldr	r0, [sp, #24]	@ float
  79              	.LVL4:
  80 0010 FFF7FEFF 		bl	__aeabi_fsub
  81              	.LVL5:
  82 0014 0646     		mov	r6, r0
  83 0016 2146     		mov	r1, r4
  84 0018 4046     		mov	r0, r8
  85 001a FFF7FEFF 		bl	__aeabi_fsub
  86              	.LVL6:
  87 001e 0146     		mov	r1, r0
  88 0020 3046     		mov	r0, r6
  89 0022 FFF7FEFF 		bl	__aeabi_fmul
  90              	.LVL7:
  91 0026 0646     		mov	r6, r0
  92 0028 2946     		mov	r1, r5
  93 002a 3846     		mov	r0, r7
  94 002c FFF7FEFF 		bl	__aeabi_fsub
  95              	.LVL8:
  96 0030 0146     		mov	r1, r0
  97 0032 3046     		mov	r0, r6
  98 0034 FFF7FEFF 		bl	__aeabi_fdiv
  99              	.LVL9:
 100 0038 0146     		mov	r1, r0
 101 003a 2046     		mov	r0, r4
 102 003c FFF7FEFF 		bl	__aeabi_fadd
 103              	.LVL10:
 104 0040 FFF7FEFF 		bl	__aeabi_f2iz
 105              	.LVL11:
  43:DataConversion.c **** }
 106              		.loc 1 43 0
 107 0044 00B2     		sxth	r0, r0
 108 0046 BDE8F081 		pop	{r4, r5, r6, r7, r8, pc}
 109              		.cfi_endproc
 110              	.LFE64:
 111              		.size	MinMaxScaler, .-MinMaxScaler
 112 004a 00BF     		.text
 113              	.Letext0:
 114              		.file 2 "c:\\program files (x86)\\cypress\\psoc creator\\4.3\\psoc creator\\import\\gnu\\arm\\5.4.
 115              		.file 3 "c:\\program files (x86)\\cypress\\psoc creator\\4.3\\psoc creator\\import\\gnu\\arm\\5.4.
 116              		.file 4 "Generated_Source\\PSoC5/core_cm3.h"