ARM GAS  C:\Users\Manu\AppData\Local\Temp\ccPhwdcP.s 			page 1


   1              		.syntax unified
   2              		.cpu cortex-m3
   3              		.fpu softvfp
   4              		.eabi_attribute 20, 1
   5              		.eabi_attribute 21, 1
   6              		.eabi_attribute 23, 3
   7              		.eabi_attribute 24, 1
   8              		.eabi_attribute 25, 1
   9              		.eabi_attribute 26, 1
  10              		.eabi_attribute 30, 1
  11              		.eabi_attribute 34, 1
  12              		.eabi_attribute 18, 4
  13              		.thumb
  14              		.syntax unified
  15              		.file	"InterruptRoutines.c"
  16              		.text
  17              	.Ltext0:
  18              		.cfi_sections	.debug_frame
  19              		.global	__aeabi_i2f
  20              		.section	.text.Custom_ISR_IMU,"ax",%progbits
  21              		.align	2
  22              		.global	Custom_ISR_IMU
  23              		.thumb
  24              		.thumb_func
  25              		.type	Custom_ISR_IMU, %function
  26              	Custom_ISR_IMU:
  27              	.LFB63:
  28              		.file 1 "InterruptRoutines.c"
   1:InterruptRoutines.c **** /* ===========================================================
   2:InterruptRoutines.c ****  *
   3:InterruptRoutines.c ****  * In this file there is the functioning of the
   4:InterruptRoutines.c ****  * ISR for the reading of the 3 values of acceleration @100Hz 
   5:InterruptRoutines.c ****  *
   6:InterruptRoutines.c ****  * ==========================================================
   7:InterruptRoutines.c **** */
   8:InterruptRoutines.c **** #include "InterruptRoutines.h"
   9:InterruptRoutines.c **** #include "DataConversion.h"
  10:InterruptRoutines.c **** 
  11:InterruptRoutines.c **** ErrorCode error; // Store the occurence of an error during the I2C reading
  12:InterruptRoutines.c **** 
  13:InterruptRoutines.c **** uint8_t status_register; // Store the value of the status register
  14:InterruptRoutines.c **** 
  15:InterruptRoutines.c **** uint8_t tmpBuffer[BYTE_TO_SEND]; // Temporary buffer to store the read values from the 6 registers
  16:InterruptRoutines.c **** int16_t tmpAxis; // Temporary value to store the actual axis value
  17:InterruptRoutines.c **** 
  18:InterruptRoutines.c **** uint8_t register_block; // Variable used to cycle over the 3 axis registers[low + high at the same 
  19:InterruptRoutines.c **** 
  20:InterruptRoutines.c **** CY_ISR(Custom_ISR_IMU)
  21:InterruptRoutines.c **** {
  29              		.loc 1 21 0
  30              		.cfi_startproc
  31              		@ args = 0, pretend = 0, frame = 0
  32              		@ frame_needed = 0, uses_anonymous_args = 0
  33 0000 10B5     		push	{r4, lr}
  34              		.cfi_def_cfa_offset 8
  35              		.cfi_offset 4, -8
  36              		.cfi_offset 14, -4
ARM GAS  C:\Users\Manu\AppData\Local\Temp\ccPhwdcP.s 			page 2


  37 0002 82B0     		sub	sp, sp, #8
  38              		.cfi_def_cfa_offset 16
  22:InterruptRoutines.c ****     // Read Timer status register to bring interrupt line low
  23:InterruptRoutines.c ****     Timer_ISR_ReadStatusRegister();
  39              		.loc 1 23 0
  40 0004 FFF7FEFF 		bl	Timer_ISR_ReadStatusRegister
  41              	.LVL0:
  24:InterruptRoutines.c ****     
  25:InterruptRoutines.c ****     // Read the status register in order to verify the readyness of the XYZ data
  26:InterruptRoutines.c ****     error = I2C_Peripheral_ReadRegister(LIS3DH_DEVICE_ADDRESS,
  42              		.loc 1 26 0
  43 0008 214A     		ldr	r2, .L6
  44 000a 2721     		movs	r1, #39
  45 000c 1820     		movs	r0, #24
  46 000e FFF7FEFF 		bl	I2C_Peripheral_ReadRegister
  47              	.LVL1:
  48 0012 204B     		ldr	r3, .L6+4
  49 0014 1870     		strb	r0, [r3]
  27:InterruptRoutines.c ****                                         LIS3DH_STATUS_REG,
  28:InterruptRoutines.c ****                                         &status_register);
  29:InterruptRoutines.c ****     
  30:InterruptRoutines.c ****     if (error == NO_ERROR)
  50              		.loc 1 30 0
  51 0016 0028     		cmp	r0, #0
  52 0018 38D1     		bne	.L1
  31:InterruptRoutines.c ****     {
  32:InterruptRoutines.c ****         /*  Bitwise mask to check only if the 'ZYXDA' bit in the register is '1', so if there are n
  33:InterruptRoutines.c ****             |X X X X X X X X| & |0 0 0 0 1 0 0 0|  --> |0 0 0 0 X 0 0 0|   check if 'X' is '1' afte
  34:InterruptRoutines.c ****         */
  35:InterruptRoutines.c ****         if((status_register & STATUS_REG_MASK) == STATUS_REG_MASK)
  53              		.loc 1 35 0
  54 001a 1D4B     		ldr	r3, .L6
  55 001c 1B78     		ldrb	r3, [r3]	@ zero_extendqisi2
  56 001e 13F0080F 		tst	r3, #8
  57 0022 33D0     		beq	.L1
  36:InterruptRoutines.c ****         {  
  37:InterruptRoutines.c ****             // Read in sequence the 6 registers containing the 3-axis values with a multiRead funct
  38:InterruptRoutines.c ****             error = I2C_Peripheral_ReadRegisterMulti(LIS3DH_DEVICE_ADDRESS,
  58              		.loc 1 38 0
  59 0024 1C4B     		ldr	r3, .L6+8
  60 0026 0622     		movs	r2, #6
  61 0028 2821     		movs	r1, #40
  62 002a 1820     		movs	r0, #24
  63 002c FFF7FEFF 		bl	I2C_Peripheral_ReadRegisterMulti
  64              	.LVL2:
  65 0030 184B     		ldr	r3, .L6+4
  66 0032 1870     		strb	r0, [r3]
  39:InterruptRoutines.c ****                                                      LIS3DH_OUT_X_L,
  40:InterruptRoutines.c ****                                                      REGISTER_COUNT,
  41:InterruptRoutines.c ****                                                      tmpBuffer);
  42:InterruptRoutines.c ****             if (error == NO_ERROR)
  67              		.loc 1 42 0
  68 0034 50BB     		cbnz	r0, .L1
  43:InterruptRoutines.c ****             {
  44:InterruptRoutines.c ****                 // Loop through the X, Y, Z register block stored in the tmpBuffer
  45:InterruptRoutines.c ****                 for(register_block = 0; register_block < 3; register_block++)
  69              		.loc 1 45 0
ARM GAS  C:\Users\Manu\AppData\Local\Temp\ccPhwdcP.s 			page 3


  70 0036 0022     		movs	r2, #0
  71 0038 184B     		ldr	r3, .L6+12
  72 003a 1A70     		strb	r2, [r3]
  73 003c 1EE0     		b	.L3
  74              	.L4:
  46:InterruptRoutines.c ****                 {
  47:InterruptRoutines.c ****                     // Adjust and scale the data read previously in the registers
  48:InterruptRoutines.c ****                     tmpAxis = RightAdjust(&tmpBuffer[register_block * 2]); // Pass the appropriate 
  75              		.loc 1 48 0 discriminator 3
  76 003e 1648     		ldr	r0, .L6+8
  77 0040 00EB4300 		add	r0, r0, r3, lsl #1
  78 0044 FFF7FEFF 		bl	RightAdjust
  79              	.LVL3:
  80 0048 154C     		ldr	r4, .L6+16
  81 004a 2080     		strh	r0, [r4]	@ movhi
  49:InterruptRoutines.c ****                     tmpAxis = MinMaxScaler(MIN_OLD_SCALE, MAX_OLD_SCALE, MIN_NEW_SCALE, MAX_NEW_SCA
  82              		.loc 1 49 0 discriminator 3
  83 004c FFF7FEFF 		bl	__aeabi_i2f
  84              	.LVL4:
  85 0050 0090     		str	r0, [sp]	@ float
  86 0052 144B     		ldr	r3, .L6+20
  87 0054 144A     		ldr	r2, .L6+24
  88 0056 4FF08841 		mov	r1, #1140850688
  89 005a 4FF04440 		mov	r0, #-1006632960
  90 005e FFF7FEFF 		bl	MinMaxScaler
  91              	.LVL5:
  92 0062 2080     		strh	r0, [r4]	@ movhi
  50:InterruptRoutines.c ****                     
  51:InterruptRoutines.c ****                     // Insert the correct values in the appropriate position [from 1 to 6 of the bu
  52:InterruptRoutines.c ****                     dataBuffer[register_block*2 + 1] = (uint8_t)(tmpAxis & 0xFF);
  93              		.loc 1 52 0 discriminator 3
  94 0064 0D49     		ldr	r1, .L6+12
  95 0066 0B78     		ldrb	r3, [r1]	@ zero_extendqisi2
  96 0068 5A00     		lsls	r2, r3, #1
  97 006a 0132     		adds	r2, r2, #1
  98 006c 0F4C     		ldr	r4, .L6+28
  99 006e A054     		strb	r0, [r4, r2]
  53:InterruptRoutines.c ****                     dataBuffer[register_block*2 + 2] = (uint8_t)(tmpAxis >> 8); 
 100              		.loc 1 53 0 discriminator 3
 101 0070 0133     		adds	r3, r3, #1
 102 0072 C0F30720 		ubfx	r0, r0, #8, #8
 103 0076 04F81300 		strb	r0, [r4, r3, lsl #1]
  45:InterruptRoutines.c ****                 {
 104              		.loc 1 45 0 discriminator 3
 105 007a 0B70     		strb	r3, [r1]
 106              	.L3:
  45:InterruptRoutines.c ****                 {
 107              		.loc 1 45 0 is_stmt 0 discriminator 1
 108 007c 074B     		ldr	r3, .L6+12
 109 007e 1B78     		ldrb	r3, [r3]	@ zero_extendqisi2
 110 0080 022B     		cmp	r3, #2
 111 0082 DCD9     		bls	.L4
  54:InterruptRoutines.c ****                 }
  55:InterruptRoutines.c ****                 
  56:InterruptRoutines.c ****                 // Send the data packet over UART
  57:InterruptRoutines.c ****                 UART_Debug_PutArray(dataBuffer, TRANSMIT_BUFFER_SIZE);
 112              		.loc 1 57 0 is_stmt 1
ARM GAS  C:\Users\Manu\AppData\Local\Temp\ccPhwdcP.s 			page 4


 113 0084 0821     		movs	r1, #8
 114 0086 0948     		ldr	r0, .L6+28
 115 0088 FFF7FEFF 		bl	UART_Debug_PutArray
 116              	.LVL6:
 117              	.L1:
  58:InterruptRoutines.c ****             }
  59:InterruptRoutines.c ****         }
  60:InterruptRoutines.c ****     }
  61:InterruptRoutines.c **** }
 118              		.loc 1 61 0
 119 008c 02B0     		add	sp, sp, #8
 120              		.cfi_def_cfa_offset 8
 121              		@ sp needed
 122 008e 10BD     		pop	{r4, pc}
 123              	.L7:
 124              		.align	2
 125              	.L6:
 126 0090 00000000 		.word	status_register
 127 0094 00000000 		.word	error
 128 0098 00000000 		.word	tmpBuffer
 129 009c 00000000 		.word	register_block
 130 00a0 00000000 		.word	tmpAxis
 131 00a4 0000FA44 		.word	1157234688
 132 00a8 0000FAC4 		.word	-990248960
 133 00ac 00000000 		.word	dataBuffer
 134              		.cfi_endproc
 135              	.LFE63:
 136              		.size	Custom_ISR_IMU, .-Custom_ISR_IMU
 137              		.comm	register_block,1,1
 138              		.comm	tmpAxis,2,2
 139              		.comm	tmpBuffer,6,4
 140              		.comm	status_register,1,1
 141              		.comm	error,1,1
 142              		.comm	ready,1,1
 143              		.comm	dataBuffer,8,4
 144              		.text
 145              	.Letext0:
 146              		.file 2 "c:\\program files (x86)\\cypress\\psoc creator\\4.3\\psoc creator\\import\\gnu\\arm\\5.4.
 147              		.file 3 "c:\\program files (x86)\\cypress\\psoc creator\\4.3\\psoc creator\\import\\gnu\\arm\\5.4.
 148              		.file 4 "ErrorCodes.h"
 149              		.file 5 "Generated_Source\\PSoC5/core_cm3.h"
 150              		.file 6 "InterruptRoutines.h"
 151              		.file 7 "Generated_Source\\PSoC5/Timer_ISR.h"
 152              		.file 8 "I2C_Interface.h"
 153              		.file 9 "DataConversion.h"
 154              		.file 10 "Generated_Source\\PSoC5/UART_Debug.h"